target datalayout = "e-m:e-p270:32:32-p271:32:32-p272:64:64-i64:64-i128:128-f80:128-n8:16:32:64-S128"
target triple = "x86_64-pc-linux-gnu"

%"class.IndexSet::BitBlock" = type { %union.anon.15 }
%union.anon.15 = type { [4 x i64] }
%class.PhaseIFG = type { %class.Phase, ptr, i8, ptr, i32, ptr, ptr }
%class.Phase = type { i32, ptr }
%class.IndexSet = type { i32, i32, ptr, [16 x ptr], i32, ptr }
%class.LRG = type { double, double, double, ptr, i32, i32, i32, i32, i32, i32, %class.RegMask, i32, i16, i32, i16, i16 }
%class.RegMask = type { %union.anon, i32, i32 }
%union.anon = type { [11 x i64] }
%class.VectorSet = type { i32, ptr, i32, ptr }
%class.PhaseChaitin = type <{ %class.PhaseRegAlloc, i32, i32, ptr, ptr, %class.VectorSet, %class.VectorSet, i32, i32, i32, i32, i32, [4 x i8], ptr, double, %class.LiveRangeMap, i8, [3 x i8], %"class.PhaseChaitin::Pressure", %"class.PhaseChaitin::Pressure", %"class.PhaseChaitin::Pressure", %"class.PhaseChaitin::Pressure", [4 x i8] }>
%class.PhaseRegAlloc = type { ptr, %class.Phase, ptr, i32, %class.VectorSet, ptr, i32, i32, ptr }
%class.LiveRangeMap = type { i32, %class.GrowableArray, %class.GrowableArray }
%class.GrowableArray = type { %class.GrowableArrayWithAllocator, %class.GrowableArrayMetadata }
%class.GrowableArrayWithAllocator = type { %class.GrowableArrayView }
%class.GrowableArrayView = type { %class.GrowableArrayBase, ptr }
%class.GrowableArrayBase = type { i32, i32 }
%class.GrowableArrayMetadata = type { i64 }
%"class.PhaseChaitin::Pressure" = type { i32, i32, i32, i32, i32 }

; Function Attrs: mustprogress nounwind uwtable
define linkonce_odr hidden noundef i64 @_Z9mask_bitsll(i64 noundef %0, i64 noundef %1) #1 comdat {
  %3 = alloca i64, align 8
  %4 = alloca i64, align 8
  store i64 %0, ptr %3, align 8
  store i64 %1, ptr %4, align 8
  %5 = load i64, ptr %3, align 8
  %6 = load i64, ptr %4, align 8
  %7 = and i64 %5, %6
  ret i64 %7
}

; Function Attrs: mustprogress nounwind uwtable
define linkonce_odr hidden noundef ptr @_ZN8IndexSet8BitBlock5wordsEv(ptr noundef nonnull align 8 dereferenceable(32) %0) #1 comdat align 2 {
  %2 = alloca ptr, align 8
  store ptr %0, ptr %2, align 8
  %3 = load ptr, ptr %2, align 8
  %4 = getelementptr inbounds %"class.IndexSet::BitBlock", ptr %3, i32 0, i32 0
  %5 = getelementptr inbounds [4 x i64], ptr %4, i64 0, i64 0
  ret ptr %5
}

; Function Attrs: mustprogress nounwind uwtable
define linkonce_odr hidden noundef i32 @_ZN8IndexSet13get_bit_indexEj(i32 noundef %0) #1 comdat align 2 {
  %2 = alloca i32, align 4
  store i32 %0, ptr %2, align 4
  %3 = load i32, ptr %2, align 4
  %4 = zext i32 %3 to i64
  %5 = call noundef i64 @_Z9mask_bitsll(i64 noundef %4, i64 noundef 63)
  %6 = trunc i64 %5 to i32
  ret i32 %6
}

; Function Attrs: mustprogress nounwind uwtable
define linkonce_odr hidden noundef i32 @_ZN8IndexSet14get_word_indexEj(i32 noundef %0) #1 comdat align 2 {
  %2 = alloca i32, align 4
  store i32 %0, ptr %2, align 4
  %3 = load i32, ptr %2, align 4
  %4 = lshr i32 %3, 6
  %5 = zext i32 %4 to i64
  %6 = call noundef i64 @_Z9mask_bitsll(i64 noundef %5, i64 noundef 3)
  %7 = trunc i64 %6 to i32
  ret i32 %7
}

; Function Attrs: mustprogress nounwind uwtable
define linkonce_odr hidden noundef i32 @_ZN8IndexSet15get_block_indexEj(i32 noundef %0) #1 comdat align 2 {
  %2 = alloca i32, align 4
  store i32 %0, ptr %2, align 4
  %3 = load i32, ptr %2, align 4
  %4 = lshr i32 %3, 8
  ret i32 %4
}

; Function Attrs: mustprogress nounwind uwtable
define linkonce_odr hidden noundef nonnull align 8 dereferenceable(168) ptr @_ZNK8PhaseIFG4lrgsEj(ptr noundef nonnull align 8 dereferenceable(64) %0, i32 noundef %1) #1 comdat align 2 {
  %3 = alloca ptr, align 8
  %4 = alloca i32, align 4
  store ptr %0, ptr %3, align 8
  store i32 %1, ptr %4, align 4
  %5 = load ptr, ptr %3, align 8
  %6 = getelementptr inbounds %class.PhaseIFG, ptr %5, i32 0, i32 3
  %7 = load ptr, ptr %6, align 8
  %8 = load i32, ptr %4, align 4
  %9 = zext i32 %8 to i64
  %10 = getelementptr inbounds %class.LRG, ptr %7, i64 %9
  ret ptr %10
}

; Function Attrs: mustprogress nounwind uwtable
define linkonce_odr hidden noundef zeroext i1 @_ZN8IndexSet8BitBlock6removeEj(ptr noundef nonnull align 8 dereferenceable(32) %0, i32 noundef %1) #1 comdat align 2 {
  %3 = alloca ptr, align 8
  %4 = alloca i32, align 4
  %5 = alloca i32, align 4
  %6 = alloca i64, align 8
  %7 = alloca i64, align 8
  %8 = alloca i64, align 8
  store ptr %0, ptr %3, align 8
  store i32 %1, ptr %4, align 4
  %9 = load ptr, ptr %3, align 8
  %10 = load i32, ptr %4, align 4
  %11 = call noundef i32 @_ZN8IndexSet14get_word_indexEj(i32 noundef %10)
  store i32 %11, ptr %5, align 4
  %12 = load i32, ptr %4, align 4
  %13 = call noundef i32 @_ZN8IndexSet13get_bit_indexEj(i32 noundef %12)
  %14 = zext i32 %13 to i64
  store i64 %14, ptr %6, align 8
  %15 = load i64, ptr %6, align 8
  %16 = shl i64 1, %15
  store i64 %16, ptr %7, align 8
  %17 = call noundef ptr @_ZN8IndexSet8BitBlock5wordsEv(ptr noundef nonnull align 8 dereferenceable(32) %9)
  %18 = load i32, ptr %5, align 4
  %19 = zext i32 %18 to i64
  %20 = getelementptr inbounds i64, ptr %17, i64 %19
  %21 = load i64, ptr %20, align 8
  store i64 %21, ptr %8, align 8
  %22 = load i64, ptr %8, align 8
  %23 = load i64, ptr %7, align 8
  %24 = xor i64 %23, -1
  %25 = and i64 %22, %24
  %26 = call noundef ptr @_ZN8IndexSet8BitBlock5wordsEv(ptr noundef nonnull align 8 dereferenceable(32) %9)
  %27 = load i32, ptr %5, align 4
  %28 = zext i32 %27 to i64
  %29 = getelementptr inbounds i64, ptr %26, i64 %28
  store i64 %25, ptr %29, align 8
  %30 = load i64, ptr %8, align 8
  %31 = load i64, ptr %7, align 8
  %32 = and i64 %30, %31
  %33 = icmp ne i64 %32, 0
  ret i1 %33
}

; Function Attrs: mustprogress nounwind uwtable
define linkonce_odr hidden noundef ptr @_ZNK8IndexSet20get_block_containingEj(ptr noundef nonnull align 8 dereferenceable(160) %0, i32 noundef %1) #1 comdat align 2 {
  %3 = alloca ptr, align 8
  %4 = alloca i32, align 4
  store ptr %0, ptr %3, align 8
  store i32 %1, ptr %4, align 4
  %5 = load ptr, ptr %3, align 8
  %6 = getelementptr inbounds %class.IndexSet, ptr %5, i32 0, i32 2
  %7 = load ptr, ptr %6, align 8
  %8 = load i32, ptr %4, align 4
  %9 = call noundef i32 @_ZN8IndexSet15get_block_indexEj(i32 noundef %8)
  %10 = zext i32 %9 to i64
  %11 = getelementptr inbounds ptr, ptr %7, i64 %10
  %12 = load ptr, ptr %11, align 8
  ret ptr %12
}

; Function Attrs: mustprogress nounwind uwtable
define linkonce_odr hidden noundef nonnull align 8 dereferenceable(168) ptr @_ZNK12PhaseChaitin4lrgsEj(ptr noundef nonnull align 8 dereferenceable(364) %0, i32 noundef %1) #1 comdat align 2 {
  %3 = alloca ptr, align 8
  %4 = alloca i32, align 4
  store ptr %0, ptr %3, align 8
  store i32 %1, ptr %4, align 4
  %5 = load ptr, ptr %3, align 8
  %6 = getelementptr inbounds %class.PhaseChaitin, ptr %5, i32 0, i32 4
  %7 = load ptr, ptr %6, align 8
  %8 = load i32, ptr %4, align 4
  %9 = call noundef nonnull align 8 dereferenceable(168) ptr @_ZNK8PhaseIFG4lrgsEj(ptr noundef nonnull align 8 dereferenceable(64) %7, i32 noundef %8)
  ret ptr %9
}

; Function Attrs: mustprogress nounwind uwtable
define linkonce_odr hidden noundef zeroext i1 @_ZN8IndexSet6removeEj(ptr noundef nonnull align 8 dereferenceable(160) %0, i32 noundef %1) #1 comdat align 2 {
  %3 = alloca ptr, align 8
  %4 = alloca i32, align 4
  %5 = alloca ptr, align 8
  %6 = alloca i8, align 1
  store ptr %0, ptr %3, align 8
  store i32 %1, ptr %4, align 4
  %7 = load ptr, ptr %3, align 8
  %8 = load i32, ptr %4, align 4
  %9 = call noundef ptr @_ZNK8IndexSet20get_block_containingEj(ptr noundef nonnull align 8 dereferenceable(160) %7, i32 noundef %8)
  store ptr %9, ptr %5, align 8
  %10 = load ptr, ptr %5, align 8
  %11 = load i32, ptr %4, align 4
  %12 = call noundef zeroext i1 @_ZN8IndexSet8BitBlock6removeEj(ptr noundef nonnull align 8 dereferenceable(32) %10, i32 noundef %11)
  %13 = zext i1 %12 to i8
  store i8 %13, ptr %6, align 1
  %14 = load i8, ptr %6, align 1
  %15 = trunc i8 %14 to i1
  br i1 %15, label %16, label %20

16:                                               ; preds = %2
  %17 = getelementptr inbounds %class.IndexSet, ptr %7, i32 0, i32 0
  %18 = load i32, ptr %17, align 8
  %19 = add i32 %18, -1
  store i32 %19, ptr %17, align 8
  br label %20

20:                                               ; preds = %16, %2
  %21 = load i8, ptr %6, align 1
  %22 = trunc i8 %21 to i1
  ret i1 %22
}

; Function Attrs: mustprogress nounwind uwtable
define hidden void @_ZN12PhaseChaitin29remove_interference_from_copyEP5BlockjjP8IndexSetdRNS_8PressureES5_(ptr noundef nonnull align 8 dereferenceable(364) %0, ptr noundef %1, i32 noundef %2, i32 noundef %3, ptr noundef %4, double noundef %5, ptr noundef nonnull align 4 dereferenceable(20) %6, ptr noundef nonnull align 4 dereferenceable(20) %7) #1 align 2 {
  %9 = alloca ptr, align 8
  %10 = alloca ptr, align 8
  %11 = alloca i32, align 4
  %12 = alloca i32, align 4
  %13 = alloca ptr, align 8
  %14 = alloca double, align 8
  %15 = alloca ptr, align 8
  %16 = alloca ptr, align 8
  %17 = alloca ptr, align 8
  store ptr %0, ptr %9, align 8
  store ptr %1, ptr %10, align 8
  store i32 %2, ptr %11, align 4
  store i32 %3, ptr %12, align 4
  store ptr %4, ptr %13, align 8
  store double %5, ptr %14, align 8
  store ptr %6, ptr %15, align 8
  store ptr %7, ptr %16, align 8
  %18 = load ptr, ptr %9, align 8
  %19 = load ptr, ptr %13, align 8
  %20 = load i32, ptr %12, align 4
  %21 = call noundef zeroext i1 @_ZN8IndexSet6removeEj(ptr noundef nonnull align 8 dereferenceable(160) %19, i32 noundef %20)
  br i1 %21, label %22, label %36

22:                                               ; preds = %8
  %23 = load i32, ptr %12, align 4
  %24 = call noundef nonnull align 8 dereferenceable(168) ptr @_ZNK12PhaseChaitin4lrgsEj(ptr noundef nonnull align 8 dereferenceable(364) %18, i32 noundef %23)
  store ptr %24, ptr %17, align 8
  %25 = load double, ptr %14, align 8
  %26 = load ptr, ptr %17, align 8
  %27 = getelementptr inbounds %class.LRG, ptr %26, i32 0, i32 1
  %28 = load double, ptr %27, align 8
  %29 = fsub double %28, %25
  store double %29, ptr %27, align 8
  %30 = load ptr, ptr %10, align 8
  %31 = load i32, ptr %11, align 4
  %32 = load ptr, ptr %17, align 8
  %33 = load ptr, ptr %13, align 8
  %34 = load ptr, ptr %15, align 8
  %35 = load ptr, ptr %16, align 8
  call void @_ZN12PhaseChaitin14lower_pressureEP5BlockjR3LRGP8IndexSetRNS_8PressureES7_(ptr noundef nonnull align 8 dereferenceable(364) %18, ptr noundef %30, i32 noundef %31, ptr noundef nonnull align 8 dereferenceable(168) %32, ptr noundef %33, ptr noundef nonnull align 4 dereferenceable(20) %34, ptr noundef nonnull align 4 dereferenceable(20) %35)
  br label %36

36:                                               ; preds = %22, %8
  ret void
}