; Function Attrs: mustprogress nounwind uwtable
define hidden void @_ZN12PhaseChaitin29remove_interference_from_copyEP5BlockjjP8IndexSetdRNS_8PressureES5_(ptr nocapture noundef nonnull readonly align 8 dereferenceable(364) %0, ptr nocapture noundef readnone %1, i32 noundef %2, i32 noundef %3, ptr nocapture noundef %4, double noundef %5, ptr nocapture noundef nonnull align 4 dereferenceable(20) %6, ptr nocapture noundef nonnull align 4 dereferenceable(20) %7) local_unnamed_addr #0 align 2 {
  %9 = getelementptr inbounds i8, ptr %4, i64 8
  %10 = load ptr, ptr %9, align 8
  %11 = lshr i32 %3, 8
  %12 = zext nneg i32 %11 to i64
  %13 = getelementptr inbounds ptr, ptr %10, i64 %12
  %14 = load ptr, ptr %13, align 8
  %15 = lshr i32 %3, 6
  %16 = and i32 %15, 3
  %17 = and i32 %3, 63
  %18 = zext nneg i32 %17 to i64
  %19 = shl nuw i64 1, %18
  %20 = zext nneg i32 %16 to i64
  %21 = getelementptr inbounds i64, ptr %14, i64 %20
  %22 = load i64, ptr %21, align 8
  %23 = xor i64 %19, -1
  %24 = and i64 %22, %23
  store i64 %24, ptr %21, align 8
  %25 = and i64 %22, %19
  %.not = icmp eq i64 %25, 0
  br i1 %.not, label %_ZN8IndexSet6removeEj.exit, label %26

26:                                               ; preds = %8
  %27 = load i32, ptr %4, align 8
  %28 = add i32 %27, -1
  store i32 %28, ptr %4, align 8
  %29 = getelementptr inbounds i8, ptr %0, i64 112
  %30 = load ptr, ptr %29, align 8
  %31 = getelementptr inbounds i8, ptr %30, i64 32
  %32 = load ptr, ptr %31, align 8
  %33 = zext i32 %3 to i64
  %34 = getelementptr inbounds %class.LRG, ptr %32, i64 %33
  %35 = getelementptr inbounds i8, ptr %34, i64 8
  %36 = load double, ptr %35, align 8
  %37 = fsub double %36, %5
  store double %37, ptr %35, align 8
  tail call void @_ZN12PhaseChaitin14lower_pressureEP5BlockjR3LRGP8IndexSetRNS_8PressureES7_(ptr nonnull align 8 poison, ptr poison, i32 noundef %2, ptr noundef nonnull align 8 dereferenceable(168) %34, ptr nonnull poison, ptr noundef nonnull align 4 dereferenceable(20) %6, ptr noundef nonnull align 4 dereferenceable(20) %7)
  br label %_ZN8IndexSet6removeEj.exit

_ZN8IndexSet6removeEj.exit:                       ; preds = %8, %26
  ret void
}